; ModuleID = '38/1190.c'
source_filename = "38/1190.c"
target datalayout = "e-m:e-p270:32:32-p271:32:32-p272:64:64-i64:64-f80:128-n8:16:32:64-S128"
target triple = "x86_64-pc-linux-gnu"

@.str = private unnamed_addr constant [3 x i8] c"%d\00", align 1
@.str.1 = private unnamed_addr constant [4 x i8] c"%lf\00", align 1
@.str.2 = private unnamed_addr constant [7 x i8] c"%.5lf\0A\00", align 1

; Function Attrs: noinline nounwind uwtable
define dso_local i32 @main() #0 {
  %1 = alloca i32, align 4
  %2 = alloca i32, align 4
  %3 = alloca i32, align 4
  %4 = alloca i32, align 4
  %5 = alloca [100 x [1000 x double]], align 16
  %6 = alloca [100 x double], align 16
  %7 = alloca double, align 8
  %8 = alloca double, align 8
  %9 = alloca double, align 8
  store i32 0, i32* %1, align 4
  %10 = call i32 (i8*, ...) @__isoc99_scanf(i8* getelementptr inbounds ([3 x i8], [3 x i8]* @.str, i64 0, i64 0), i32* %3)
  store i32 0, i32* %2, align 4
  br label %11

11:                                               ; preds = %40, %0
  %12 = load i32, i32* %2, align 4
  %13 = load i32, i32* %3, align 4
  %14 = icmp slt i32 %12, %13
  br i1 %14, label %15, label %43

15:                                               ; preds = %11
  %16 = load i32, i32* %2, align 4
  %17 = sext i32 %16 to i64
  %18 = getelementptr inbounds [100 x double], [100 x double]* %6, i64 0, i64 %17
  %19 = call i32 (i8*, ...) @__isoc99_scanf(i8* getelementptr inbounds ([4 x i8], [4 x i8]* @.str.1, i64 0, i64 0), double* %18)
  store i32 0, i32* %4, align 4
  br label %20

20:                                               ; preds = %36, %15
  %21 = load i32, i32* %4, align 4
  %22 = sitofp i32 %21 to double
  %23 = load i32, i32* %2, align 4
  %24 = sext i32 %23 to i64
  %25 = getelementptr inbounds [100 x double], [100 x double]* %6, i64 0, i64 %24
  %26 = load double, double* %25, align 8
  %27 = fcmp olt double %22, %26
  br i1 %27, label %28, label %39

28:                                               ; preds = %20
  %29 = load i32, i32* %2, align 4
  %30 = sext i32 %29 to i64
  %31 = getelementptr inbounds [100 x [1000 x double]], [100 x [1000 x double]]* %5, i64 0, i64 %30
  %32 = load i32, i32* %4, align 4
  %33 = sext i32 %32 to i64
  %34 = getelementptr inbounds [1000 x double], [1000 x double]* %31, i64 0, i64 %33
  %35 = call i32 (i8*, ...) @__isoc99_scanf(i8* getelementptr inbounds ([4 x i8], [4 x i8]* @.str.1, i64 0, i64 0), double* %34)
  br label %36

36:                                               ; preds = %28
  %37 = load i32, i32* %4, align 4
  %38 = add nsw i32 %37, 1
  store i32 %38, i32* %4, align 4
  br label %20

39:                                               ; preds = %20
  br label %40

40:                                               ; preds = %39
  %41 = load i32, i32* %2, align 4
  %42 = add nsw i32 %41, 1
  store i32 %42, i32* %2, align 4
  br label %11

43:                                               ; preds = %11
  store i32 0, i32* %2, align 4
  br label %44

44:                                               ; preds = %113, %43
  %45 = load i32, i32* %2, align 4
  %46 = load i32, i32* %3, align 4
  %47 = icmp slt i32 %45, %46
  br i1 %47, label %48, label %116

48:                                               ; preds = %44
  store double 0.000000e+00, double* %7, align 8
  store double 0.000000e+00, double* %8, align 8
  store double 0.000000e+00, double* %9, align 8
  store i32 0, i32* %4, align 4
  br label %49

49:                                               ; preds = %67, %48
  %50 = load i32, i32* %4, align 4
  %51 = sitofp i32 %50 to double
  %52 = load i32, i32* %2, align 4
  %53 = sext i32 %52 to i64
  %54 = getelementptr inbounds [100 x double], [100 x double]* %6, i64 0, i64 %53
  %55 = load double, double* %54, align 8
  %56 = fcmp olt double %51, %55
  br i1 %56, label %57, label %70

57:                                               ; preds = %49
  %58 = load i32, i32* %2, align 4
  %59 = sext i32 %58 to i64
  %60 = getelementptr inbounds [100 x [1000 x double]], [100 x [1000 x double]]* %5, i64 0, i64 %59
  %61 = load i32, i32* %4, align 4
  %62 = sext i32 %61 to i64
  %63 = getelementptr inbounds [1000 x double], [1000 x double]* %60, i64 0, i64 %62
  %64 = load double, double* %63, align 8
  %65 = load double, double* %7, align 8
  %66 = fadd double %65, %64
  store double %66, double* %7, align 8
  br label %67

67:                                               ; preds = %57
  %68 = load i32, i32* %4, align 4
  %69 = add nsw i32 %68, 1
  store i32 %69, i32* %4, align 4
  br label %49

70:                                               ; preds = %49
  %71 = load double, double* %7, align 8
  %72 = load i32, i32* %2, align 4
  %73 = sext i32 %72 to i64
  %74 = getelementptr inbounds [100 x double], [100 x double]* %6, i64 0, i64 %73
  %75 = load double, double* %74, align 8
  %76 = fdiv double %71, %75
  store double %76, double* %7, align 8
  store i32 0, i32* %4, align 4
  br label %77

77:                                               ; preds = %99, %70
  %78 = load i32, i32* %4, align 4
  %79 = sitofp i32 %78 to double
  %80 = load i32, i32* %2, align 4
  %81 = sext i32 %80 to i64
  %82 = getelementptr inbounds [100 x double], [100 x double]* %6, i64 0, i64 %81
  %83 = load double, double* %82, align 8
  %84 = fcmp olt double %79, %83
  br i1 %84, label %85, label %102

85:                                               ; preds = %77
  %86 = load i32, i32* %2, align 4
  %87 = sext i32 %86 to i64
  %88 = getelementptr inbounds [100 x [1000 x double]], [100 x [1000 x double]]* %5, i64 0, i64 %87
  %89 = load i32, i32* %4, align 4
  %90 = sext i32 %89 to i64
  %91 = getelementptr inbounds [1000 x double], [1000 x double]* %88, i64 0, i64 %90
  %92 = load double, double* %91, align 8
  %93 = load double, double* %7, align 8
  %94 = fsub double %92, %93
  store double %94, double* %9, align 8
  %95 = load double, double* %8, align 8
  %96 = load double, double* %9, align 8
  %97 = call double @pow(double %96, double 2.000000e+00) #3
  %98 = fadd double %95, %97
  store double %98, double* %8, align 8
  br label %99

99:                                               ; preds = %85
  %100 = load i32, i32* %4, align 4
  %101 = add nsw i32 %100, 1
  store i32 %101, i32* %4, align 4
  br label %77

102:                                              ; preds = %77
  %103 = load double, double* %8, align 8
  %104 = load i32, i32* %2, align 4
  %105 = sext i32 %104 to i64
  %106 = getelementptr inbounds [100 x double], [100 x double]* %6, i64 0, i64 %105
  %107 = load double, double* %106, align 8
  %108 = fdiv double %103, %107
  store double %108, double* %9, align 8
  %109 = load double, double* %9, align 8
  %110 = call double @pow(double %109, double 5.000000e-01) #3
  store double %110, double* %8, align 8
  %111 = load double, double* %8, align 8
  %112 = call i32 (i8*, ...) @printf(i8* getelementptr inbounds ([7 x i8], [7 x i8]* @.str.2, i64 0, i64 0), double %111)
  br label %113

113:                                              ; preds = %102
  %114 = load i32, i32* %2, align 4
  %115 = add nsw i32 %114, 1
  store i32 %115, i32* %2, align 4
  br label %44

116:                                              ; preds = %44
  ret i32 0
}

declare dso_local i32 @__isoc99_scanf(i8*, ...) #1

; Function Attrs: nounwind
declare dso_local double @pow(double, double) #2

declare dso_local i32 @printf(i8*, ...) #1


!llvm.module.flags = !{!0}
!llvm.ident = !{!1}

!0 = !{i32 1, !"wchar_size", i32 4}
!1 = !{!"clang version 10.0.0-4ubuntu1 "}
